; ModuleID = 'source-C-CXX/1/1170.c'
source_filename = "source-C-CXX/1/1170.c"
target datalayout = "e-m:e-p270:32:32-p271:32:32-p272:64:64-i64:64-f80:128-n8:16:32:64-S128"
target triple = "x86_64-pc-linux-gnu"

%struct.book = type { i32, [27 x i8] }

@.str = private unnamed_addr constant [3 x i8] c"%d\00", align 1
@.str.1 = private unnamed_addr constant [5 x i8] c"%d%s\00", align 1
@.str.2 = private unnamed_addr constant [7 x i8] c"%c\0A%d\0A\00", align 1
@.str.3 = private unnamed_addr constant [4 x i8] c"%d\0A\00", align 1

; Function Attrs: nofree nounwind sspstrong uwtable
define dso_local i32 @main() local_unnamed_addr #0 {
  %1 = alloca i32, align 4
  %2 = alloca [1000 x i32], align 16
  %3 = alloca [1000 x %struct.book], align 16
  %4 = bitcast i32* %1 to i8*
  call void @llvm.lifetime.start.p0i8(i64 4, i8* nonnull %4) #5
  %5 = bitcast [1000 x i32]* %2 to i8*
  call void @llvm.lifetime.start.p0i8(i64 4000, i8* nonnull %5) #5
  %6 = bitcast [1000 x %struct.book]* %3 to i8*
  call void @llvm.lifetime.start.p0i8(i64 32000, i8* nonnull %6) #5
  call void @llvm.memset.p0i8.i64(i8* noundef nonnull align 16 dereferenceable(4000) %5, i8 0, i64 4000, i1 false)
  %7 = call i32 (i8*, ...) @__isoc99_scanf(i8* getelementptr inbounds ([3 x i8], [3 x i8]* @.str, i64 0, i64 0), i32* nonnull %1)
  %8 = load i32, i32* %1, align 4, !tbaa !5
  %9 = icmp sgt i32 %8, 0
  br i1 %9, label %14, label %50

10:                                               ; preds = %14
  %11 = icmp sgt i32 %20, 0
  br i1 %11, label %12, label %50

12:                                               ; preds = %10
  %13 = zext i32 %20 to i64
  br label %23

14:                                               ; preds = %0, %14
  %15 = phi i64 [ %19, %14 ], [ 0, %0 ]
  %16 = getelementptr inbounds [1000 x %struct.book], [1000 x %struct.book]* %3, i64 0, i64 %15, i32 0
  %17 = getelementptr inbounds [1000 x %struct.book], [1000 x %struct.book]* %3, i64 0, i64 %15, i32 1, i64 0
  %18 = call i32 (i8*, ...) @__isoc99_scanf(i8* getelementptr inbounds ([5 x i8], [5 x i8]* @.str.1, i64 0, i64 0), i32* nonnull %16, i8* nonnull %17)
  %19 = add nuw nsw i64 %15, 1
  %20 = load i32, i32* %1, align 4, !tbaa !5
  %21 = sext i32 %20 to i64
  %22 = icmp slt i64 %19, %21
  br i1 %22, label %14, label %10, !llvm.loop !9

23:                                               ; preds = %12, %46
  %24 = phi i64 [ 0, %12 ], [ %48, %46 ]
  %25 = phi i8 [ 0, %12 ], [ %47, %46 ]
  %26 = getelementptr inbounds [1000 x %struct.book], [1000 x %struct.book]* %3, i64 0, i64 %24, i32 1, i64 0
  %27 = load i8, i8* %26, align 4, !tbaa !11
  %28 = icmp eq i8 %27, 0
  br i1 %28, label %46, label %29

29:                                               ; preds = %23, %29
  %30 = phi i64 [ %42, %29 ], [ 0, %23 ]
  %31 = phi i8 [ %44, %29 ], [ %27, %23 ]
  %32 = phi i8 [ %41, %29 ], [ %25, %23 ]
  %33 = sext i8 %31 to i64
  %34 = getelementptr inbounds [1000 x i32], [1000 x i32]* %2, i64 0, i64 %33
  %35 = load i32, i32* %34, align 4, !tbaa !5
  %36 = add nsw i32 %35, 1
  store i32 %36, i32* %34, align 4, !tbaa !5
  %37 = sext i8 %32 to i64
  %38 = getelementptr inbounds [1000 x i32], [1000 x i32]* %2, i64 0, i64 %37
  %39 = load i32, i32* %38, align 4, !tbaa !5
  %40 = icmp slt i32 %35, %39
  %41 = select i1 %40, i8 %32, i8 %31
  %42 = add nuw nsw i64 %30, 1
  %43 = getelementptr inbounds [1000 x %struct.book], [1000 x %struct.book]* %3, i64 0, i64 %24, i32 1, i64 %42
  %44 = load i8, i8* %43, align 1, !tbaa !11
  %45 = icmp eq i8 %44, 0
  br i1 %45, label %46, label %29, !llvm.loop !12

46:                                               ; preds = %29, %23
  %47 = phi i8 [ %25, %23 ], [ %41, %29 ]
  %48 = add nuw nsw i64 %24, 1
  %49 = icmp eq i64 %48, %13
  br i1 %49, label %50, label %23, !llvm.loop !13

50:                                               ; preds = %46, %0, %10
  %51 = phi i8 [ 0, %10 ], [ 0, %0 ], [ %47, %46 ]
  %52 = sext i8 %51 to i32
  %53 = sext i8 %51 to i64
  %54 = getelementptr inbounds [1000 x i32], [1000 x i32]* %2, i64 0, i64 %53
  %55 = load i32, i32* %54, align 4, !tbaa !5
  %56 = call i32 (i8*, ...) @printf(i8* nonnull dereferenceable(1) getelementptr inbounds ([7 x i8], [7 x i8]* @.str.2, i64 0, i64 0), i32 %52, i32 %55)
  %57 = load i32, i32* %1, align 4, !tbaa !5
  %58 = icmp sgt i32 %57, 0
  br i1 %58, label %59, label %75

59:                                               ; preds = %50, %70
  %60 = phi i32 [ %71, %70 ], [ %57, %50 ]
  %61 = phi i64 [ %72, %70 ], [ 0, %50 ]
  %62 = getelementptr inbounds [1000 x %struct.book], [1000 x %struct.book]* %3, i64 0, i64 %61, i32 1, i64 0
  %63 = call i8* @strchr(i8* noundef nonnull %62, i32 %52) #6
  %64 = icmp eq i8* %63, null
  br i1 %64, label %70, label %65

65:                                               ; preds = %59
  %66 = getelementptr inbounds [1000 x %struct.book], [1000 x %struct.book]* %3, i64 0, i64 %61, i32 0
  %67 = load i32, i32* %66, align 16, !tbaa !14
  %68 = call i32 (i8*, ...) @printf(i8* nonnull dereferenceable(1) getelementptr inbounds ([4 x i8], [4 x i8]* @.str.3, i64 0, i64 0), i32 %67)
  %69 = load i32, i32* %1, align 4, !tbaa !5
  br label %70

70:                                               ; preds = %59, %65
  %71 = phi i32 [ %60, %59 ], [ %69, %65 ]
  %72 = add nuw nsw i64 %61, 1
  %73 = sext i32 %71 to i64
  %74 = icmp slt i64 %72, %73
  br i1 %74, label %59, label %75, !llvm.loop !16

75:                                               ; preds = %70, %50
  call void @llvm.lifetime.end.p0i8(i64 32000, i8* nonnull %6) #5
  call void @llvm.lifetime.end.p0i8(i64 4000, i8* nonnull %5) #5
  call void @llvm.lifetime.end.p0i8(i64 4, i8* nonnull %4) #5
  ret i32 0
}

; Function Attrs: argmemonly mustprogress nofree nosync nounwind willreturn
declare void @llvm.lifetime.start.p0i8(i64 immarg, i8* nocapture) #1

; Function Attrs: argmemonly mustprogress nofree nounwind willreturn writeonly
declare void @llvm.memset.p0i8.i64(i8* nocapture writeonly, i8, i64, i1 immarg) #2

; Function Attrs: nofree nounwind
declare noundef i32 @__isoc99_scanf(i8* nocapture noundef readonly, ...) local_unnamed_addr #3

; Function Attrs: nofree nounwind
declare noundef i32 @printf(i8* nocapture noundef readonly, ...) local_unnamed_addr #3

; Function Attrs: argmemonly mustprogress nofree nounwind readonly willreturn
declare i8* @strchr(i8*, i32) local_unnamed_addr #4

; Function Attrs: argmemonly mustprogress nofree nosync nounwind willreturn
declare void @llvm.lifetime.end.p0i8(i64 immarg, i8* nocapture) #1


!llvm.module.flags = !{!0, !1, !2, !3}
!llvm.ident = !{!4}

!0 = !{i32 1, !"wchar_size", i32 4}
!1 = !{i32 7, !"PIC Level", i32 2}
!2 = !{i32 7, !"PIE Level", i32 2}
!3 = !{i32 7, !"uwtable", i32 1}
!4 = !{!"clang version 13.0.0"}
!5 = !{!6, !6, i64 0}
!6 = !{!"int", !7, i64 0}
!7 = !{!"omnipotent char", !8, i64 0}
!8 = !{!"Simple C/C++ TBAA"}
!9 = distinct !{!9, !10}
!10 = !{!"llvm.loop.mustprogress"}
!11 = !{!7, !7, i64 0}
!12 = distinct !{!12, !10}
!13 = distinct !{!13, !10}
!14 = !{!15, !6, i64 0}
!15 = !{!"book", !6, i64 0, !7, i64 4}
!16 = distinct !{!16, !10}
